target datalayout = "e-m:e-p270:32:32-p271:32:32-p272:64:64-i64:64-i128:128-f80:128-n8:16:32:64-S128"
target triple = "x86_64-pc-linux-gnu"

%struct.MemoryStruct = type { ptr, i64 }

@.str.187 = private unnamed_addr constant [76 x i8] c"remote_cvdhead - recv callback: Failed to allocate memory CVD header data.\0A\00", align 1

; Function Attrs: nounwind uwtable
define internal i64 @WriteMemoryCallback(ptr noundef %0, i64 noundef %1, i64 noundef %2, ptr noundef %3) #0 {
  %5 = alloca i64, align 8
  %6 = alloca ptr, align 8
  %7 = alloca i64, align 8
  %8 = alloca i64, align 8
  %9 = alloca ptr, align 8
  %10 = alloca i64, align 8
  %11 = alloca ptr, align 8
  %12 = alloca i32, align 4
  %13 = alloca ptr, align 8
  store ptr %0, ptr %6, align 8, !tbaa !20
  store i64 %1, ptr %7, align 8, !tbaa !7
  store i64 %2, ptr %8, align 8, !tbaa !7
  store ptr %3, ptr %9, align 8, !tbaa !20
  call void @llvm.lifetime.start.p0(i64 8, ptr %10) #13
  %14 = load i64, ptr %7, align 8, !tbaa !7
  %15 = load i64, ptr %8, align 8, !tbaa !7
  %16 = mul i64 %14, %15
  store i64 %16, ptr %10, align 8, !tbaa !7
  call void @llvm.lifetime.start.p0(i64 8, ptr %11) #13
  %17 = load ptr, ptr %9, align 8, !tbaa !20
  store ptr %17, ptr %11, align 8, !tbaa !68
  %18 = load ptr, ptr %6, align 8, !tbaa !20
  %19 = icmp eq ptr null, %18
  br i1 %19, label %23, label %20

20:                                               ; preds = %4
  %21 = load ptr, ptr %9, align 8, !tbaa !20
  %22 = icmp eq ptr null, %21
  br i1 %22, label %23, label %24

23:                                               ; preds = %20, %4
  store i64 0, ptr %5, align 8
  store i32 1, ptr %12, align 4
  br label %66

24:                                               ; preds = %20
  call void @llvm.lifetime.start.p0(i64 8, ptr %13) #13
  %25 = load ptr, ptr %11, align 8, !tbaa !68
  %26 = getelementptr inbounds nuw %struct.MemoryStruct, ptr %25, i32 0, i32 0
  %27 = load ptr, ptr %26, align 8, !tbaa !59
  %28 = load ptr, ptr %11, align 8, !tbaa !68
  %29 = getelementptr inbounds nuw %struct.MemoryStruct, ptr %28, i32 0, i32 1
  %30 = load i64, ptr %29, align 8, !tbaa !61
  %31 = load i64, ptr %10, align 8, !tbaa !7
  %32 = add i64 %30, %31
  %33 = add i64 %32, 1
  %34 = call ptr @realloc(ptr noundef %27, i64 noundef %33) #18
  store ptr %34, ptr %13, align 8, !tbaa !12
  %35 = load ptr, ptr %13, align 8, !tbaa !12
  %36 = icmp eq ptr null, %35
  br i1 %36, label %37, label %39

37:                                               ; preds = %24
  %38 = call i32 (i32, ptr, ...) @logg(i32 noundef 5, ptr noundef @.str.187)
  store i64 0, ptr %5, align 8
  store i32 1, ptr %12, align 4
  br label %65

39:                                               ; preds = %24
  %40 = load ptr, ptr %13, align 8, !tbaa !12
  %41 = load ptr, ptr %11, align 8, !tbaa !68
  %42 = getelementptr inbounds nuw %struct.MemoryStruct, ptr %41, i32 0, i32 0
  store ptr %40, ptr %42, align 8, !tbaa !59
  %43 = load ptr, ptr %11, align 8, !tbaa !68
  %44 = getelementptr inbounds nuw %struct.MemoryStruct, ptr %43, i32 0, i32 0
  %45 = load ptr, ptr %44, align 8, !tbaa !59
  %46 = load ptr, ptr %11, align 8, !tbaa !68
  %47 = getelementptr inbounds nuw %struct.MemoryStruct, ptr %46, i32 0, i32 1
  %48 = load i64, ptr %47, align 8, !tbaa !61
  %49 = getelementptr inbounds nuw i8, ptr %45, i64 %48
  %50 = load ptr, ptr %6, align 8, !tbaa !20
  %51 = load i64, ptr %10, align 8, !tbaa !7
  call void @llvm.memcpy.p0.p0.i64(ptr align 1 %49, ptr align 1 %50, i64 %51, i1 false)
  %52 = load i64, ptr %10, align 8, !tbaa !7
  %53 = load ptr, ptr %11, align 8, !tbaa !68
  %54 = getelementptr inbounds nuw %struct.MemoryStruct, ptr %53, i32 0, i32 1
  %55 = load i64, ptr %54, align 8, !tbaa !61
  %56 = add i64 %55, %52
  store i64 %56, ptr %54, align 8, !tbaa !61
  %57 = load ptr, ptr %11, align 8, !tbaa !68
  %58 = getelementptr inbounds nuw %struct.MemoryStruct, ptr %57, i32 0, i32 0
  %59 = load ptr, ptr %58, align 8, !tbaa !59
  %60 = load ptr, ptr %11, align 8, !tbaa !68
  %61 = getelementptr inbounds nuw %struct.MemoryStruct, ptr %60, i32 0, i32 1
  %62 = load i64, ptr %61, align 8, !tbaa !61
  %63 = getelementptr inbounds nuw i8, ptr %59, i64 %62
  store i8 0, ptr %63, align 1, !tbaa !19
  %64 = load i64, ptr %10, align 8, !tbaa !7
  store i64 %64, ptr %5, align 8
  store i32 1, ptr %12, align 4
  br label %65

65:                                               ; preds = %39, %37
  call void @llvm.lifetime.end.p0(i64 8, ptr %13) #13
  br label %66

66:                                               ; preds = %65, %23
  call void @llvm.lifetime.end.p0(i64 8, ptr %11) #13
  call void @llvm.lifetime.end.p0(i64 8, ptr %10) #13
  %67 = load i64, ptr %5, align 8
  ret i64 %67
}