; Function Attrs: nounwind uwtable
define internal noundef i64 @WriteMemoryCallback(ptr noundef readonly %0, i64 noundef %1, i64 noundef %2, ptr noundef %3) #0 {
  %5 = mul i64 %2, %1
  %6 = icmp eq ptr %0, null
  %7 = icmp eq ptr %3, null
  %or.cond = or i1 %6, %7
  br i1 %or.cond, label %23, label %8

8:                                                ; preds = %4
  %9 = load ptr, ptr %3, align 8, !tbaa !45
  %10 = getelementptr inbounds nuw i8, ptr %3, i64 8
  %11 = load i64, ptr %10, align 8, !tbaa !47
  %12 = add i64 %5, 1
  %13 = add i64 %12, %11
  %14 = tail call ptr @realloc(ptr noundef %9, i64 noundef %13) #29
  %15 = icmp eq ptr %14, null
  br i1 %15, label %16, label %18

16:                                               ; preds = %8
  %17 = tail call i32 (i32, ptr, ...) @logg(i32 noundef 5, ptr noundef nonnull @.str.187) #24
  br label %23

18:                                               ; preds = %8
  store ptr %14, ptr %3, align 8, !tbaa !45
  %19 = load i64, ptr %10, align 8, !tbaa !47
  %20 = getelementptr inbounds nuw i8, ptr %14, i64 %19
  tail call void @llvm.memcpy.p0.p0.i64(ptr nonnull align 1 %20, ptr nonnull align 1 %0, i64 %5, i1 false)
  %21 = add i64 %19, %5
  store i64 %21, ptr %10, align 8, !tbaa !47
  %22 = getelementptr inbounds nuw i8, ptr %14, i64 %21
  store i8 0, ptr %22, align 1, !tbaa !16
  br label %23

23:                                               ; preds = %16, %18, %4
  %.0 = phi i64 [ 0, %4 ], [ 0, %16 ], [ %5, %18 ]
  ret i64 %.0
}